; Function Attrs: nounwind uwtable
define internal void @array_dealloc(ptr noundef %0) #0 {
  %2 = getelementptr i8, ptr %0, i64 8
  %.val = load ptr, ptr %2, align 8, !tbaa !19
  tail call void @PyObject_GC_UnTrack(ptr noundef %0) #11
  %3 = getelementptr inbounds nuw i8, ptr %0, i64 48
  %4 = load ptr, ptr %3, align 8, !tbaa !82
  %.not = icmp eq ptr %4, null
  br i1 %.not, label %6, label %5

5:                                                ; preds = %1
  tail call void @PyObject_ClearWeakRefs(ptr noundef nonnull %0) #11
  br label %6

6:                                                ; preds = %5, %1
  %7 = getelementptr inbounds nuw i8, ptr %0, i64 24
  %8 = load ptr, ptr %7, align 8, !tbaa !53
  %.not9 = icmp eq ptr %8, null
  br i1 %.not9, label %10, label %9

9:                                                ; preds = %6
  tail call void @PyMem_Free(ptr noundef nonnull %8) #11
  br label %10

10:                                               ; preds = %9, %6
  %11 = getelementptr inbounds nuw i8, ptr %.val, i64 320
  %12 = load ptr, ptr %11, align 8, !tbaa !96
  tail call void %12(ptr noundef nonnull %0) #11
  %13 = load i32, ptr %.val, align 8, !tbaa !17
  %.not.i = icmp sgt i32 %13, -1
  br i1 %.not.i, label %14, label %Py_DECREF.exit

14:                                               ; preds = %10
  %15 = add nsw i32 %13, -1
  store i32 %15, ptr %.val, align 8, !tbaa !17
  %16 = icmp eq i32 %15, 0
  br i1 %16, label %17, label %Py_DECREF.exit

17:                                               ; preds = %14
  tail call void @_Py_Dealloc(ptr noundef nonnull %.val) #11
  br label %Py_DECREF.exit

Py_DECREF.exit:                                   ; preds = %10, %14, %17
  ret void
}